; Function Attrs: null_pointer_is_valid sspstrong uwtable
define internal i32 @dissect_ismacryp(ptr noundef %0, ptr noundef readonly captures(none) %1, ptr noundef %2, ptr readnone captures(none) %3) #0 {
  %5 = getelementptr inbounds nuw i8, ptr %1, i64 8
  %6 = load ptr, ptr %5, align 8
  tail call void @col_set_str(ptr noundef %6, i32 noundef 25, ptr noundef nonnull @.str.134)
  %7 = load i32, ptr @version_type, align 4
  tail call fastcc void @dissect_ismacryp_common(ptr noundef %0, ptr noundef %1, ptr noundef %2, i32 noundef %7)
  %8 = tail call i32 @tvb_captured_length(ptr noundef %0)
  ret i32 %8
}